; Function Attrs: mustprogress nounwind uwtable
define hidden noundef ptr @_ZN14JfrThreadGroup9new_entryER22JfrThreadGroupPointers(ptr nocapture noundef nonnull readonly align 8 dereferenceable(8) %0, ptr nocapture noundef nonnull align 8 dereferenceable(16) %1) local_unnamed_addr #0 align 2 {
  %3 = tail call noundef ptr @_ZN11JfrCHeapObjnwEm(i64 noundef 40) #20
  %4 = icmp eq ptr %3, null
  br i1 %4, label %28, label %5

5:                                                ; preds = %2
  %6 = load ptr, ptr %1, align 8
  %7 = icmp eq ptr %6, null
  br i1 %7, label %_ZNK22JfrThreadGroupPointers16thread_group_oopEv.exit, label %8

8:                                                ; preds = %5
  %9 = load ptr, ptr %6, align 8
  br label %_ZNK22JfrThreadGroupPointers16thread_group_oopEv.exit

_ZNK22JfrThreadGroupPointers16thread_group_oopEv.exit: ; preds = %5, %8
  %10 = phi ptr [ %9, %8 ], [ null, %5 ]
  %11 = tail call noundef ptr @_ZN21java_lang_ThreadGroup4nameEP7oopDesc(ptr noundef %10) #20
  %12 = getelementptr inbounds i8, ptr %3, i64 32
  %.not.i.i = icmp eq ptr %11, null
  tail call void @llvm.memset.p0.i64(ptr noundef nonnull align 8 dereferenceable(40) %3, i8 0, i64 40, i1 false)
  br i1 %.not.i.i, label %_ZN14JfrThreadGroup19JfrThreadGroupEntry21set_thread_group_nameEPKc.exit.i, label %13

13:                                               ; preds = %_ZNK22JfrThreadGroupPointers16thread_group_oopEv.exit
  %14 = getelementptr inbounds i8, ptr %3, i64 16
  %15 = tail call i64 @strlen(ptr noundef nonnull readonly dereferenceable(1) %11) #21
  %16 = add i64 %15, 1
  %17 = tail call noundef ptr @_ZN11JfrCHeapObj23allocate_array_noinlineEmm(i64 noundef %16, i64 noundef 1) #20
  tail call void @_ZN11JfrCHeapObj20on_memory_allocationEPKvm(ptr noundef %17, i64 noundef %16) #20
  store ptr %17, ptr %14, align 8
  %18 = tail call ptr @strncpy(ptr noundef %17, ptr noundef nonnull readonly %11, i64 noundef %16) #20
  br label %_ZN14JfrThreadGroup19JfrThreadGroupEntry21set_thread_group_nameEPKc.exit.i

_ZN14JfrThreadGroup19JfrThreadGroupEntry21set_thread_group_nameEPKc.exit.i: ; preds = %13, %_ZNK22JfrThreadGroupPointers16thread_group_oopEv.exit
  %19 = getelementptr inbounds i8, ptr %1, i64 8
  %20 = load ptr, ptr %19, align 8
  store ptr null, ptr %19, align 8
  store ptr %20, ptr %12, align 8
  %21 = icmp eq ptr %20, null
  br i1 %21, label %22, label %_ZN14JfrThreadGroup19JfrThreadGroupEntryC2EPKcR22JfrThreadGroupPointers.exit

22:                                               ; preds = %_ZN14JfrThreadGroup19JfrThreadGroupEntry21set_thread_group_nameEPKc.exit.i
  %23 = load ptr, ptr %1, align 8
  %24 = icmp eq ptr %23, null
  br i1 %24, label %_ZN14JfrThreadGroup19JfrThreadGroupEntryC2EPKcR22JfrThreadGroupPointers.exit, label %25

25:                                               ; preds = %22
  %26 = load ptr, ptr %23, align 8
  br label %_ZN14JfrThreadGroup19JfrThreadGroupEntryC2EPKcR22JfrThreadGroupPointers.exit

_ZN14JfrThreadGroup19JfrThreadGroupEntryC2EPKcR22JfrThreadGroupPointers.exit: ; preds = %_ZN14JfrThreadGroup19JfrThreadGroupEntry21set_thread_group_nameEPKc.exit.i, %22, %25
  %.sink.i.i = phi ptr [ %26, %25 ], [ null, %22 ], [ null, %_ZN14JfrThreadGroup19JfrThreadGroupEntry21set_thread_group_nameEPKc.exit.i ]
  %27 = getelementptr inbounds i8, ptr %3, i64 24
  store ptr %.sink.i.i, ptr %27, align 8
  br label %28

28:                                               ; preds = %_ZN14JfrThreadGroup19JfrThreadGroupEntryC2EPKcR22JfrThreadGroupPointers.exit, %2
  %29 = load i64, ptr @_ZZL7next_idvE23_current_threadgroup_id, align 8
  %30 = add i64 %29, 1
  store i64 %30, ptr @_ZZL7next_idvE23_current_threadgroup_id, align 8
  store i64 %30, ptr %3, align 8
  %31 = load ptr, ptr %0, align 8
  %32 = load i32, ptr %31, align 8
  %33 = getelementptr inbounds i8, ptr %31, i64 4
  %34 = load i32, ptr %33, align 4
  %35 = icmp eq i32 %32, %34
  br i1 %35, label %36, label %_ZN14JfrThreadGroup9add_entryEPNS_19JfrThreadGroupEntryE.exit

36:                                               ; preds = %28
  %37 = add nsw i32 %32, 1
  %38 = icmp sgt i32 %32, -1
  %39 = xor i32 %32, -2147483648
  %40 = and i32 %39, %37
  %41 = icmp eq i32 %40, 0
  %42 = and i1 %38, %41
  %43 = tail call range(i32 0, 33) i32 @llvm.ctlz.i32(i32 %37, i1 true)
  %44 = sub nuw nsw i32 32, %43
  %45 = shl nuw i32 1, %44
  %.0.i.i.i.i.i = select i1 %42, i32 %37, i32 %45
  tail call void @_ZN26GrowableArrayWithAllocatorIPN14JfrThreadGroup19JfrThreadGroupEntryE13GrowableArrayIS2_EE9expand_toEi(ptr noundef nonnull align 8 dereferenceable(16) %31, i32 noundef %.0.i.i.i.i.i)
  %.pre.i.i = load i32, ptr %31, align 8
  br label %_ZN14JfrThreadGroup9add_entryEPNS_19JfrThreadGroupEntryE.exit

_ZN14JfrThreadGroup9add_entryEPNS_19JfrThreadGroupEntryE.exit: ; preds = %28, %36
  %46 = phi i32 [ %.pre.i.i, %36 ], [ %32, %28 ]
  %47 = add nsw i32 %46, 1
  store i32 %47, ptr %31, align 8
  %48 = getelementptr inbounds i8, ptr %31, i64 8
  %49 = load ptr, ptr %48, align 8
  %50 = sext i32 %46 to i64
  %51 = getelementptr inbounds ptr, ptr %49, i64 %50
  store ptr %3, ptr %51, align 8
  ret ptr %3
}